target datalayout = "e-m:e-p270:32:32-p271:32:32-p272:64:64-i64:64-i128:128-f80:128-n8:16:32:64-S128"
target triple = "x86_64-pc-linux-gnu"

%struct.CTState = type { ptr, i32, i32, ptr, ptr, ptr, %struct.CCallback, [128 x i16] }
%struct.CCallback = type { [8 x %union.FPRCBArg], [8 x i64], ptr, ptr, ptr, i32, i32, i32 }
%union.FPRCBArg = type { double }
%struct.CType = type { i32, i32, i16, i16, %struct.GCRef }
%struct.GCRef = type { i64 }

; Function Attrs: alwaysinline nounwind uwtable
define internal i32 @hashrot(i32 noundef %0, i32 noundef %1) #5 {
  %3 = alloca i32, align 4
  %4 = alloca i32, align 4
  store i32 %0, ptr %3, align 4, !tbaa !21
  store i32 %1, ptr %4, align 4, !tbaa !21
  %5 = load i32, ptr %4, align 4, !tbaa !21
  %6 = load i32, ptr %3, align 4, !tbaa !21
  %7 = xor i32 %6, %5
  store i32 %7, ptr %3, align 4, !tbaa !21
  %8 = load i32, ptr %4, align 4, !tbaa !21
  %9 = shl i32 %8, 14
  %10 = load i32, ptr %4, align 4, !tbaa !21
  %11 = lshr i32 %10, 18
  %12 = or i32 %9, %11
  store i32 %12, ptr %4, align 4, !tbaa !21
  %13 = load i32, ptr %4, align 4, !tbaa !21
  %14 = load i32, ptr %3, align 4, !tbaa !21
  %15 = sub i32 %14, %13
  store i32 %15, ptr %3, align 4, !tbaa !21
  %16 = load i32, ptr %4, align 4, !tbaa !21
  %17 = shl i32 %16, 5
  %18 = load i32, ptr %4, align 4, !tbaa !21
  %19 = lshr i32 %18, 27
  %20 = or i32 %17, %19
  store i32 %20, ptr %4, align 4, !tbaa !21
  %21 = load i32, ptr %3, align 4, !tbaa !21
  %22 = load i32, ptr %4, align 4, !tbaa !21
  %23 = xor i32 %22, %21
  store i32 %23, ptr %4, align 4, !tbaa !21
  %24 = load i32, ptr %3, align 4, !tbaa !21
  %25 = shl i32 %24, 13
  %26 = load i32, ptr %3, align 4, !tbaa !21
  %27 = lshr i32 %26, 19
  %28 = or i32 %25, %27
  %29 = load i32, ptr %4, align 4, !tbaa !21
  %30 = sub i32 %29, %28
  store i32 %30, ptr %4, align 4, !tbaa !21
  %31 = load i32, ptr %4, align 4, !tbaa !21
  ret i32 %31
}

; Function Attrs: nounwind uwtable
define hidden void @lj_ctype_addname(ptr noundef %0, ptr noundef %1, i32 noundef %2) #0 {
  %4 = alloca ptr, align 8
  %5 = alloca ptr, align 8
  %6 = alloca i32, align 4
  %7 = alloca i32, align 4
  store ptr %0, ptr %4, align 8, !tbaa !4
  store ptr %1, ptr %5, align 8, !tbaa !25
  store i32 %2, ptr %6, align 4, !tbaa !21
  call void @llvm.lifetime.start.p0(i64 4, ptr %7) #8
  %8 = load ptr, ptr %5, align 8, !tbaa !25
  %9 = getelementptr inbounds nuw %struct.CType, ptr %8, i32 0, i32 4
  %10 = getelementptr inbounds nuw %struct.GCRef, ptr %9, i32 0, i32 0
  %11 = load i64, ptr %10, align 8, !tbaa !34
  %12 = inttoptr i64 %11 to ptr
  %13 = ptrtoint ptr %12 to i64
  %14 = trunc i64 %13 to i32
  %15 = load ptr, ptr %5, align 8, !tbaa !25
  %16 = getelementptr inbounds nuw %struct.CType, ptr %15, i32 0, i32 4
  %17 = getelementptr inbounds nuw %struct.GCRef, ptr %16, i32 0, i32 0
  %18 = load i64, ptr %17, align 8, !tbaa !34
  %19 = inttoptr i64 %18 to ptr
  %20 = ptrtoint ptr %19 to i64
  %21 = trunc i64 %20 to i32
  %22 = add i32 %21, -79764919
  %23 = call i32 @hashrot(i32 noundef %14, i32 noundef %22)
  %24 = and i32 %23, 127
  store i32 %24, ptr %7, align 4, !tbaa !21
  %25 = load ptr, ptr %4, align 8, !tbaa !4
  %26 = getelementptr inbounds nuw %struct.CTState, ptr %25, i32 0, i32 7
  %27 = load i32, ptr %7, align 4, !tbaa !21
  %28 = zext i32 %27 to i64
  %29 = getelementptr inbounds nuw [128 x i16], ptr %26, i64 0, i64 %28
  %30 = load i16, ptr %29, align 2, !tbaa !35
  %31 = load ptr, ptr %5, align 8, !tbaa !25
  %32 = getelementptr inbounds nuw %struct.CType, ptr %31, i32 0, i32 3
  store i16 %30, ptr %32, align 2, !tbaa !33
  %33 = load i32, ptr %6, align 4, !tbaa !21
  %34 = trunc i32 %33 to i16
  %35 = load ptr, ptr %4, align 8, !tbaa !4
  %36 = getelementptr inbounds nuw %struct.CTState, ptr %35, i32 0, i32 7
  %37 = load i32, ptr %7, align 4, !tbaa !21
  %38 = zext i32 %37 to i64
  %39 = getelementptr inbounds nuw [128 x i16], ptr %36, i64 0, i64 %38
  store i16 %34, ptr %39, align 2, !tbaa !35
  call void @llvm.lifetime.end.p0(i64 4, ptr %7) #8
  ret void
}