; Function Attrs: mustprogress nofree norecurse nosync nounwind willreturn memory(argmem: readwrite) uwtable
define hidden void @lj_ctype_addname(ptr noundef captures(none) %0, ptr noundef captures(none) initializes((10, 12)) %1, i32 noundef %2) local_unnamed_addr #4 {
  %4 = getelementptr inbounds nuw i8, ptr %1, i64 16
  %5 = load i64, ptr %4, align 8, !tbaa !22
  %6 = trunc i64 %5 to i32
  %7 = add i32 %6, -79764919
  %8 = xor i32 %7, %6
  %9 = tail call i32 @llvm.fshl.i32(i32 %7, i32 %7, i32 14)
  %10 = sub i32 %8, %9
  %11 = tail call i32 @llvm.fshl.i32(i32 %9, i32 %9, i32 5)
  %12 = xor i32 %11, %10
  %13 = lshr i32 %10, 19
  %14 = sub i32 %12, %13
  %15 = and i32 %14, 127
  %16 = getelementptr inbounds nuw i8, ptr %0, i64 208
  %17 = zext nneg i32 %15 to i64
  %18 = getelementptr inbounds nuw [128 x i16], ptr %16, i64 0, i64 %17
  %19 = load i16, ptr %18, align 2, !tbaa !27
  %20 = getelementptr inbounds nuw i8, ptr %1, i64 10
  store i16 %19, ptr %20, align 2, !tbaa !33
  %21 = trunc i32 %2 to i16
  store i16 %21, ptr %18, align 2, !tbaa !27
  ret void
}